target datalayout = "e-m:e-p270:32:32-p271:32:32-p272:64:64-i64:64-i128:128-f80:128-n8:16:32:64-S128"
target triple = "x86_64-pc-linux-gnu"

%struct.write_midx_context = type { ptr, i64, i64, ptr, ptr, ptr, i32, ptr, i64, ptr, ptr, i8, i32, i32, i32, i32, ptr, ptr }
%struct.pack_info = type { i32, ptr, ptr, i32, i32, i8 }

@.str.40 = private unnamed_addr constant [27 x i8] c"size_t overflow: %lu * %lu\00", align 1
@.str.43 = private unnamed_addr constant [5 x i8] c".idx\00", align 1
@.str.44 = private unnamed_addr constant [28 x i8] c"failed to add packfile '%s'\00", align 1
@.str.45 = private unnamed_addr constant [31 x i8] c"failed to open pack-index '%s'\00", align 1
@.str.65 = private unnamed_addr constant [1 x i8] zeroinitializer, align 1
@git_gettext_enabled = external global i32, align 4

; Function Attrs: inlinehint nounwind uwtable
define internal zeroext i1 @strip_suffix_mem(ptr noundef %0, ptr noundef %1, ptr noundef %2) #4 {
  %4 = alloca i1, align 1
  %5 = alloca ptr, align 8
  %6 = alloca ptr, align 8
  %7 = alloca ptr, align 8
  %8 = alloca i64, align 8
  %9 = alloca i32, align 4
  store ptr %0, ptr %5, align 8, !tbaa !9
  store ptr %1, ptr %6, align 8, !tbaa !200
  store ptr %2, ptr %7, align 8, !tbaa !9
  call void @llvm.lifetime.start.p0(i64 8, ptr %8) #11
  %10 = load ptr, ptr %7, align 8, !tbaa !9
  %11 = call i64 @strlen(ptr noundef %10) #13
  store i64 %11, ptr %8, align 8, !tbaa !72
  %12 = load ptr, ptr %6, align 8, !tbaa !200
  %13 = load i64, ptr %12, align 8, !tbaa !72
  %14 = load i64, ptr %8, align 8, !tbaa !72
  %15 = icmp ult i64 %13, %14
  br i1 %15, label %27, label %16

16:                                               ; preds = %3
  %17 = load ptr, ptr %5, align 8, !tbaa !9
  %18 = load ptr, ptr %6, align 8, !tbaa !200
  %19 = load i64, ptr %18, align 8, !tbaa !72
  %20 = load i64, ptr %8, align 8, !tbaa !72
  %21 = sub i64 %19, %20
  %22 = getelementptr inbounds nuw i8, ptr %17, i64 %21
  %23 = load ptr, ptr %7, align 8, !tbaa !9
  %24 = load i64, ptr %8, align 8, !tbaa !72
  %25 = call i32 @memcmp(ptr noundef %22, ptr noundef %23, i64 noundef %24) #13
  %26 = icmp ne i32 %25, 0
  br i1 %26, label %27, label %28

27:                                               ; preds = %16, %3
  store i1 false, ptr %4, align 1
  store i32 1, ptr %9, align 4
  br label %33

28:                                               ; preds = %16
  %29 = load i64, ptr %8, align 8, !tbaa !72
  %30 = load ptr, ptr %6, align 8, !tbaa !200
  %31 = load i64, ptr %30, align 8, !tbaa !72
  %32 = sub i64 %31, %29
  store i64 %32, ptr %30, align 8, !tbaa !72
  store i1 true, ptr %4, align 1
  store i32 1, ptr %9, align 4
  br label %33

33:                                               ; preds = %28, %27
  call void @llvm.lifetime.end.p0(i64 8, ptr %8) #11
  %34 = load i1, ptr %4, align 1
  ret i1 %34
}

; Function Attrs: inlinehint nounwind uwtable
define internal zeroext i1 @strip_suffix(ptr noundef %0, ptr noundef %1, ptr noundef %2) #4 {
  %4 = alloca ptr, align 8
  %5 = alloca ptr, align 8
  %6 = alloca ptr, align 8
  store ptr %0, ptr %4, align 8, !tbaa !9
  store ptr %1, ptr %5, align 8, !tbaa !9
  store ptr %2, ptr %6, align 8, !tbaa !200
  %7 = load ptr, ptr %4, align 8, !tbaa !9
  %8 = call i64 @strlen(ptr noundef %7) #13
  %9 = load ptr, ptr %6, align 8, !tbaa !200
  store i64 %8, ptr %9, align 8, !tbaa !72
  %10 = load ptr, ptr %4, align 8, !tbaa !9
  %11 = load ptr, ptr %6, align 8, !tbaa !200
  %12 = load ptr, ptr %5, align 8, !tbaa !9
  %13 = call zeroext i1 @strip_suffix_mem(ptr noundef %10, ptr noundef %11, ptr noundef %12)
  ret i1 %13
}

; Function Attrs: nounwind uwtable
define internal void @fill_pack_info(ptr noundef %0, ptr noundef %1, ptr noundef %2, i32 noundef %3) #0 {
  %5 = alloca ptr, align 8
  %6 = alloca ptr, align 8
  %7 = alloca ptr, align 8
  %8 = alloca i32, align 4
  store ptr %0, ptr %5, align 8, !tbaa !89
  store ptr %1, ptr %6, align 8, !tbaa !68
  store ptr %2, ptr %7, align 8, !tbaa !9
  store i32 %3, ptr %8, align 4, !tbaa !11
  %9 = load ptr, ptr %5, align 8, !tbaa !89
  call void @llvm.memset.p0.i64(ptr align 8 %9, i8 0, i64 40, i1 false)
  %10 = load i32, ptr %8, align 4, !tbaa !11
  %11 = load ptr, ptr %5, align 8, !tbaa !89
  %12 = getelementptr inbounds nuw %struct.pack_info, ptr %11, i32 0, i32 0
  store i32 %10, ptr %12, align 8, !tbaa !86
  %13 = load ptr, ptr %7, align 8, !tbaa !9
  %14 = call ptr @xstrdup(ptr noundef %13)
  %15 = load ptr, ptr %5, align 8, !tbaa !89
  %16 = getelementptr inbounds nuw %struct.pack_info, ptr %15, i32 0, i32 1
  store ptr %14, ptr %16, align 8, !tbaa !63
  %17 = load ptr, ptr %6, align 8, !tbaa !68
  %18 = load ptr, ptr %5, align 8, !tbaa !89
  %19 = getelementptr inbounds nuw %struct.pack_info, ptr %18, i32 0, i32 2
  store ptr %17, ptr %19, align 8, !tbaa !67
  %20 = load ptr, ptr %5, align 8, !tbaa !89
  %21 = getelementptr inbounds nuw %struct.pack_info, ptr %20, i32 0, i32 3
  store i32 -1, ptr %21, align 8, !tbaa !166
  ret void
}

; Function Attrs: inlinehint nounwind uwtable
define internal ptr @_(ptr noundef %0) #4 {
  %2 = alloca ptr, align 8
  %3 = alloca ptr, align 8
  store ptr %0, ptr %3, align 8, !tbaa !9
  %4 = load ptr, ptr %3, align 8, !tbaa !9
  %5 = load i8, ptr %4, align 1, !tbaa !114
  %6 = icmp ne i8 %5, 0
  br i1 %6, label %8, label %7

7:                                                ; preds = %1
  store ptr @.str.65, ptr %2, align 8
  br label %16

8:                                                ; preds = %1
  %9 = load i32, ptr @git_gettext_enabled, align 4, !tbaa !11
  %10 = icmp ne i32 %9, 0
  br i1 %10, label %13, label %11

11:                                               ; preds = %8
  %12 = load ptr, ptr %3, align 8, !tbaa !9
  store ptr %12, ptr %2, align 8
  br label %16

13:                                               ; preds = %8
  %14 = load ptr, ptr %3, align 8, !tbaa !9
  %15 = call ptr @dcgettext(ptr noundef null, ptr noundef %14, i32 noundef 5) #11
  store ptr %15, ptr %2, align 8
  br label %16

16:                                               ; preds = %13, %11, %7
  %17 = load ptr, ptr %2, align 8
  ret ptr %17
}

; Function Attrs: inlinehint nounwind uwtable
define internal i64 @st_mult(i64 noundef %0, i64 noundef %1) #4 {
  %3 = alloca i64, align 8
  %4 = alloca i64, align 8
  store i64 %0, ptr %3, align 8, !tbaa !72
  store i64 %1, ptr %4, align 8, !tbaa !72
  %5 = load i64, ptr %3, align 8, !tbaa !72
  %6 = icmp ne i64 %5, 0
  br i1 %6, label %7, label %15

7:                                                ; preds = %2
  %8 = load i64, ptr %4, align 8, !tbaa !72
  %9 = load i64, ptr %3, align 8, !tbaa !72
  %10 = udiv i64 -1, %9
  %11 = icmp ugt i64 %8, %10
  br i1 %11, label %12, label %15

12:                                               ; preds = %7
  %13 = load i64, ptr %3, align 8, !tbaa !72
  %14 = load i64, ptr %4, align 8, !tbaa !72
  call void (ptr, ...) @die(ptr noundef @.str.40, i64 noundef %13, i64 noundef %14) #12
  unreachable

15:                                               ; preds = %7, %2
  %16 = load i64, ptr %3, align 8, !tbaa !72
  %17 = load i64, ptr %4, align 8, !tbaa !72
  %18 = mul i64 %16, %17
  ret i64 %18
}

; Function Attrs: nounwind uwtable
define internal i32 @should_include_pack(ptr noundef %0, ptr noundef %1) #0 {
  %3 = alloca i32, align 4
  %4 = alloca ptr, align 8
  %5 = alloca ptr, align 8
  store ptr %0, ptr %4, align 8, !tbaa !133
  store ptr %1, ptr %5, align 8, !tbaa !9
  %6 = load ptr, ptr %4, align 8, !tbaa !133
  %7 = getelementptr inbounds nuw %struct.write_midx_context, ptr %6, i32 0, i32 3
  %8 = load ptr, ptr %7, align 8, !tbaa !50
  %9 = icmp ne ptr %8, null
  br i1 %9, label %10, label %18

10:                                               ; preds = %2
  %11 = load ptr, ptr %4, align 8, !tbaa !133
  %12 = getelementptr inbounds nuw %struct.write_midx_context, ptr %11, i32 0, i32 3
  %13 = load ptr, ptr %12, align 8, !tbaa !50
  %14 = load ptr, ptr %5, align 8, !tbaa !9
  %15 = call i32 @midx_contains_pack(ptr noundef %13, ptr noundef %14)
  %16 = icmp ne i32 %15, 0
  br i1 %16, label %17, label %18

17:                                               ; preds = %10
  store i32 0, ptr %3, align 4
  br label %47

18:                                               ; preds = %10, %2
  %19 = load ptr, ptr %4, align 8, !tbaa !133
  %20 = getelementptr inbounds nuw %struct.write_midx_context, ptr %19, i32 0, i32 4
  %21 = load ptr, ptr %20, align 8, !tbaa !49
  %22 = icmp ne ptr %21, null
  br i1 %22, label %23, label %31

23:                                               ; preds = %18
  %24 = load ptr, ptr %4, align 8, !tbaa !133
  %25 = getelementptr inbounds nuw %struct.write_midx_context, ptr %24, i32 0, i32 4
  %26 = load ptr, ptr %25, align 8, !tbaa !49
  %27 = load ptr, ptr %5, align 8, !tbaa !9
  %28 = call i32 @midx_contains_pack(ptr noundef %26, ptr noundef %27)
  %29 = icmp ne i32 %28, 0
  br i1 %29, label %30, label %31

30:                                               ; preds = %23
  store i32 0, ptr %3, align 4
  br label %47

31:                                               ; preds = %23, %18
  %32 = load ptr, ptr %4, align 8, !tbaa !133
  %33 = getelementptr inbounds nuw %struct.write_midx_context, ptr %32, i32 0, i32 16
  %34 = load ptr, ptr %33, align 8, !tbaa !59
  %35 = icmp ne ptr %34, null
  br i1 %35, label %36, label %44

36:                                               ; preds = %31
  %37 = load ptr, ptr %4, align 8, !tbaa !133
  %38 = getelementptr inbounds nuw %struct.write_midx_context, ptr %37, i32 0, i32 16
  %39 = load ptr, ptr %38, align 8, !tbaa !59
  %40 = load ptr, ptr %5, align 8, !tbaa !9
  %41 = call i32 @string_list_has_string(ptr noundef %39, ptr noundef %40)
  %42 = icmp ne i32 %41, 0
  br i1 %42, label %44, label %43

43:                                               ; preds = %36
  store i32 0, ptr %3, align 4
  br label %47

44:                                               ; preds = %36, %31
  br label %45

45:                                               ; preds = %44
  br label %46

46:                                               ; preds = %45
  store i32 1, ptr %3, align 4
  br label %47

47:                                               ; preds = %46, %43, %30, %17
  %48 = load i32, ptr %3, align 4
  ret i32 %48
}

; Function Attrs: inlinehint nounwind uwtable
define internal i32 @ends_with(ptr noundef %0, ptr noundef %1) #4 {
  %3 = alloca ptr, align 8
  %4 = alloca ptr, align 8
  %5 = alloca i64, align 8
  store ptr %0, ptr %3, align 8, !tbaa !9
  store ptr %1, ptr %4, align 8, !tbaa !9
  call void @llvm.lifetime.start.p0(i64 8, ptr %5) #11
  %6 = load ptr, ptr %3, align 8, !tbaa !9
  %7 = load ptr, ptr %4, align 8, !tbaa !9
  %8 = call zeroext i1 @strip_suffix(ptr noundef %6, ptr noundef %7, ptr noundef %5)
  %9 = zext i1 %8 to i32
  call void @llvm.lifetime.end.p0(i64 8, ptr %5) #11
  ret i32 %9
}

; Function Attrs: nounwind uwtable
define internal void @add_pack_to_midx(ptr noundef %0, i64 noundef %1, ptr noundef %2, ptr noundef %3) #0 {
  %5 = alloca ptr, align 8
  %6 = alloca i64, align 8
  %7 = alloca ptr, align 8
  %8 = alloca ptr, align 8
  %9 = alloca ptr, align 8
  %10 = alloca ptr, align 8
  %11 = alloca i32, align 4
  store ptr %0, ptr %5, align 8, !tbaa !9
  store i64 %1, ptr %6, align 8, !tbaa !72
  store ptr %2, ptr %7, align 8, !tbaa !9
  store ptr %3, ptr %8, align 8, !tbaa !137
  call void @llvm.lifetime.start.p0(i64 8, ptr %9) #11
  %12 = load ptr, ptr %8, align 8, !tbaa !137
  store ptr %12, ptr %9, align 8, !tbaa !133
  call void @llvm.lifetime.start.p0(i64 8, ptr %10) #11
  %13 = load ptr, ptr %7, align 8, !tbaa !9
  %14 = call i32 @ends_with(ptr noundef %13, ptr noundef @.str.43)
  %15 = icmp ne i32 %14, 0
  br i1 %15, label %16, label %120

16:                                               ; preds = %4
  %17 = load ptr, ptr %9, align 8, !tbaa !133
  %18 = getelementptr inbounds nuw %struct.write_midx_context, ptr %17, i32 0, i32 5
  %19 = load ptr, ptr %18, align 8, !tbaa !58
  %20 = load ptr, ptr %9, align 8, !tbaa !133
  %21 = getelementptr inbounds nuw %struct.write_midx_context, ptr %20, i32 0, i32 6
  %22 = load i32, ptr %21, align 8, !tbaa !57
  %23 = add i32 %22, 1
  store i32 %23, ptr %21, align 8, !tbaa !57
  %24 = zext i32 %23 to i64
  call void @display_progress(ptr noundef %19, i64 noundef %24)
  %25 = load ptr, ptr %9, align 8, !tbaa !133
  %26 = load ptr, ptr %7, align 8, !tbaa !9
  %27 = call i32 @should_include_pack(ptr noundef %25, ptr noundef %26)
  %28 = icmp ne i32 %27, 0
  br i1 %28, label %30, label %29

29:                                               ; preds = %16
  store i32 1, ptr %11, align 4
  br label %121

30:                                               ; preds = %16
  br label %31

31:                                               ; preds = %30
  %32 = load ptr, ptr %9, align 8, !tbaa !133
  %33 = getelementptr inbounds nuw %struct.write_midx_context, ptr %32, i32 0, i32 1
  %34 = load i64, ptr %33, align 8, !tbaa !51
  %35 = add i64 %34, 1
  %36 = load ptr, ptr %9, align 8, !tbaa !133
  %37 = getelementptr inbounds nuw %struct.write_midx_context, ptr %36, i32 0, i32 2
  %38 = load i64, ptr %37, align 8, !tbaa !52
  %39 = icmp ugt i64 %35, %38
  br i1 %39, label %40, label %79

40:                                               ; preds = %31
  %41 = load ptr, ptr %9, align 8, !tbaa !133
  %42 = getelementptr inbounds nuw %struct.write_midx_context, ptr %41, i32 0, i32 2
  %43 = load i64, ptr %42, align 8, !tbaa !52
  %44 = add i64 %43, 16
  %45 = mul i64 %44, 3
  %46 = udiv i64 %45, 2
  %47 = load ptr, ptr %9, align 8, !tbaa !133
  %48 = getelementptr inbounds nuw %struct.write_midx_context, ptr %47, i32 0, i32 1
  %49 = load i64, ptr %48, align 8, !tbaa !51
  %50 = add i64 %49, 1
  %51 = icmp ult i64 %46, %50
  br i1 %51, label %52, label %59

52:                                               ; preds = %40
  %53 = load ptr, ptr %9, align 8, !tbaa !133
  %54 = getelementptr inbounds nuw %struct.write_midx_context, ptr %53, i32 0, i32 1
  %55 = load i64, ptr %54, align 8, !tbaa !51
  %56 = add i64 %55, 1
  %57 = load ptr, ptr %9, align 8, !tbaa !133
  %58 = getelementptr inbounds nuw %struct.write_midx_context, ptr %57, i32 0, i32 2
  store i64 %56, ptr %58, align 8, !tbaa !52
  br label %68

59:                                               ; preds = %40
  %60 = load ptr, ptr %9, align 8, !tbaa !133
  %61 = getelementptr inbounds nuw %struct.write_midx_context, ptr %60, i32 0, i32 2
  %62 = load i64, ptr %61, align 8, !tbaa !52
  %63 = add i64 %62, 16
  %64 = mul i64 %63, 3
  %65 = udiv i64 %64, 2
  %66 = load ptr, ptr %9, align 8, !tbaa !133
  %67 = getelementptr inbounds nuw %struct.write_midx_context, ptr %66, i32 0, i32 2
  store i64 %65, ptr %67, align 8, !tbaa !52
  br label %68

68:                                               ; preds = %59, %52
  %69 = load ptr, ptr %9, align 8, !tbaa !133
  %70 = getelementptr inbounds nuw %struct.write_midx_context, ptr %69, i32 0, i32 0
  %71 = load ptr, ptr %70, align 8, !tbaa !53
  %72 = load ptr, ptr %9, align 8, !tbaa !133
  %73 = getelementptr inbounds nuw %struct.write_midx_context, ptr %72, i32 0, i32 2
  %74 = load i64, ptr %73, align 8, !tbaa !52
  %75 = call i64 @st_mult(i64 noundef 40, i64 noundef %74)
  %76 = call ptr @xrealloc(ptr noundef %71, i64 noundef %75)
  %77 = load ptr, ptr %9, align 8, !tbaa !133
  %78 = getelementptr inbounds nuw %struct.write_midx_context, ptr %77, i32 0, i32 0
  store ptr %76, ptr %78, align 8, !tbaa !53
  br label %79

79:                                               ; preds = %68, %31
  br label %80

80:                                               ; preds = %79
  br label %81

81:                                               ; preds = %80
  %82 = load ptr, ptr %9, align 8, !tbaa !133
  %83 = getelementptr inbounds nuw %struct.write_midx_context, ptr %82, i32 0, i32 17
  %84 = load ptr, ptr %83, align 8, !tbaa !19
  %85 = load ptr, ptr %5, align 8, !tbaa !9
  %86 = load i64, ptr %6, align 8, !tbaa !72
  %87 = call ptr @add_packed_git(ptr noundef %84, ptr noundef %85, i64 noundef %86, i32 noundef 0)
  store ptr %87, ptr %10, align 8, !tbaa !68
  %88 = load ptr, ptr %10, align 8, !tbaa !68
  %89 = icmp ne ptr %88, null
  br i1 %89, label %93, label %90

90:                                               ; preds = %81
  %91 = call ptr @_(ptr noundef @.str.44)
  %92 = load ptr, ptr %5, align 8, !tbaa !9
  call void (ptr, ...) @warning(ptr noundef %91, ptr noundef %92)
  store i32 1, ptr %11, align 4
  br label %121

93:                                               ; preds = %81
  %94 = load ptr, ptr %10, align 8, !tbaa !68
  %95 = call i32 @open_pack_index(ptr noundef %94)
  %96 = icmp ne i32 %95, 0
  br i1 %96, label %97, label %102

97:                                               ; preds = %93
  %98 = call ptr @_(ptr noundef @.str.45)
  %99 = load ptr, ptr %5, align 8, !tbaa !9
  call void (ptr, ...) @warning(ptr noundef %98, ptr noundef %99)
  %100 = load ptr, ptr %10, align 8, !tbaa !68
  call void @close_pack(ptr noundef %100)
  %101 = load ptr, ptr %10, align 8, !tbaa !68
  call void @free(ptr noundef %101) #11
  store i32 1, ptr %11, align 4
  br label %121

102:                                              ; preds = %93
  %103 = load ptr, ptr %9, align 8, !tbaa !133
  %104 = getelementptr inbounds nuw %struct.write_midx_context, ptr %103, i32 0, i32 0
  %105 = load ptr, ptr %104, align 8, !tbaa !53
  %106 = load ptr, ptr %9, align 8, !tbaa !133
  %107 = getelementptr inbounds nuw %struct.write_midx_context, ptr %106, i32 0, i32 1
  %108 = load i64, ptr %107, align 8, !tbaa !51
  %109 = getelementptr inbounds nuw %struct.pack_info, ptr %105, i64 %108
  %110 = load ptr, ptr %10, align 8, !tbaa !68
  %111 = load ptr, ptr %7, align 8, !tbaa !9
  %112 = load ptr, ptr %9, align 8, !tbaa !133
  %113 = getelementptr inbounds nuw %struct.write_midx_context, ptr %112, i32 0, i32 1
  %114 = load i64, ptr %113, align 8, !tbaa !51
  %115 = trunc i64 %114 to i32
  call void @fill_pack_info(ptr noundef %109, ptr noundef %110, ptr noundef %111, i32 noundef %115)
  %116 = load ptr, ptr %9, align 8, !tbaa !133
  %117 = getelementptr inbounds nuw %struct.write_midx_context, ptr %116, i32 0, i32 1
  %118 = load i64, ptr %117, align 8, !tbaa !51
  %119 = add i64 %118, 1
  store i64 %119, ptr %117, align 8, !tbaa !51
  br label %120

120:                                              ; preds = %102, %4
  store i32 0, ptr %11, align 4
  br label %121

121:                                              ; preds = %120, %97, %90, %29
  call void @llvm.lifetime.end.p0(i64 8, ptr %10) #11
  call void @llvm.lifetime.end.p0(i64 8, ptr %9) #11
  %122 = load i32, ptr %11, align 4
  switch i32 %122, label %124 [
    i32 0, label %123
    i32 1, label %123
  ]

123:                                              ; preds = %121, %121
  ret void

124:                                              ; preds = %121
  unreachable
}