; Function Attrs: nounwind uwtable
define internal void @add_pack_to_midx(ptr noundef %0, i64 noundef %1, ptr noundef %2, ptr noundef captures(none) %3) #0 {
  %5 = tail call i64 @strlen(ptr noundef nonnull readonly dereferenceable(1) %2) #21
  %6 = icmp ult i64 %5, 4
  br i1 %6, label %ends_with.exit.thread, label %ends_with.exit

ends_with.exit:                                   ; preds = %4
  %7 = getelementptr i8, ptr %2, i64 %5
  %8 = getelementptr i8, ptr %7, i64 -4
  %bcmp.i.i.i = tail call i32 @bcmp(ptr noundef nonnull readonly dereferenceable(4) %8, ptr noundef nonnull dereferenceable(4) @.str.43, i64 4)
  %.not.i.i.i.not = icmp eq i32 %bcmp.i.i.i, 0
  br i1 %.not.i.i.i.not, label %9, label %ends_with.exit.thread

9:                                                ; preds = %ends_with.exit
  %10 = getelementptr inbounds nuw i8, ptr %3, i64 40
  %11 = load ptr, ptr %10, align 8, !tbaa !65
  %12 = getelementptr inbounds nuw i8, ptr %3, i64 48
  %13 = load i32, ptr %12, align 8, !tbaa !64
  %14 = add i32 %13, 1
  store i32 %14, ptr %12, align 8, !tbaa !64
  %15 = zext i32 %14 to i64
  tail call void @display_progress(ptr noundef %11, i64 noundef %15) #19
  %16 = getelementptr inbounds nuw i8, ptr %3, i64 24
  %17 = load ptr, ptr %16, align 8, !tbaa !42
  %.not.i = icmp eq ptr %17, null
  br i1 %.not.i, label %20, label %18

18:                                               ; preds = %9
  %19 = tail call i32 @midx_contains_pack(ptr noundef nonnull %17, ptr noundef nonnull %2) #19
  %.not12.i = icmp eq i32 %19, 0
  br i1 %.not12.i, label %20, label %ends_with.exit.thread

20:                                               ; preds = %18, %9
  %21 = getelementptr inbounds nuw i8, ptr %3, i64 32
  %22 = load ptr, ptr %21, align 8, !tbaa !41
  %.not13.i = icmp eq ptr %22, null
  br i1 %.not13.i, label %25, label %23

23:                                               ; preds = %20
  %24 = tail call i32 @midx_contains_pack(ptr noundef nonnull %22, ptr noundef nonnull %2) #19
  %.not14.i = icmp eq i32 %24, 0
  br i1 %.not14.i, label %25, label %ends_with.exit.thread

25:                                               ; preds = %23, %20
  %26 = getelementptr inbounds nuw i8, ptr %3, i64 112
  %27 = load ptr, ptr %26, align 8, !tbaa !66
  %.not15.i = icmp eq ptr %27, null
  br i1 %.not15.i, label %should_include_pack.exit, label %28

28:                                               ; preds = %25
  %29 = tail call i32 @string_list_has_string(ptr noundef nonnull %27, ptr noundef nonnull %2) #19
  %.not16.i = icmp eq i32 %29, 0
  br i1 %.not16.i, label %ends_with.exit.thread, label %should_include_pack.exit

should_include_pack.exit:                         ; preds = %28, %25
  %30 = getelementptr inbounds nuw i8, ptr %3, i64 8
  %31 = load i64, ptr %30, align 8, !tbaa !43
  %32 = add i64 %31, 1
  %33 = getelementptr inbounds nuw i8, ptr %3, i64 16
  %34 = load i64, ptr %33, align 8, !tbaa !44
  %35 = icmp ugt i64 %32, %34
  br i1 %35, label %36, label %44

36:                                               ; preds = %should_include_pack.exit
  %37 = mul i64 %34, 3
  %38 = add i64 %37, 48
  %39 = lshr i64 %38, 1
  %. = tail call i64 @llvm.umax.i64(i64 %39, i64 %32)
  store i64 %., ptr %33, align 8, !tbaa !44
  %mul.ov.i = icmp ugt i64 %., 461168601842738790
  br i1 %mul.ov.i, label %40, label %st_mult.exit

40:                                               ; preds = %36
  tail call void (ptr, ...) @die(ptr noundef nonnull @.str.40, i64 noundef 40, i64 noundef %.) #20
  unreachable

st_mult.exit:                                     ; preds = %36
  %41 = load ptr, ptr %3, align 8, !tbaa !45
  %42 = mul nuw i64 %., 40
  %43 = tail call ptr @xrealloc(ptr noundef %41, i64 noundef %42) #19
  store ptr %43, ptr %3, align 8, !tbaa !45
  br label %44

44:                                               ; preds = %st_mult.exit, %should_include_pack.exit
  %45 = getelementptr inbounds nuw i8, ptr %3, i64 120
  %46 = load ptr, ptr %45, align 8, !tbaa !4
  %47 = tail call ptr @add_packed_git(ptr noundef %46, ptr noundef %0, i64 noundef %1, i32 noundef 0) #19
  %.not35 = icmp eq ptr %47, null
  br i1 %.not35, label %48, label %52

48:                                               ; preds = %44
  %49 = load i32, ptr @git_gettext_enabled, align 4, !tbaa !40
  %.not4.i = icmp eq i32 %49, 0
  br i1 %.not4.i, label %_.exit, label %50

50:                                               ; preds = %48
  %51 = tail call ptr @dcgettext(ptr noundef null, ptr noundef nonnull @.str.44, i32 noundef 5) #19
  br label %_.exit

_.exit:                                           ; preds = %48, %50
  %.0.i37 = phi ptr [ %51, %50 ], [ @.str.44, %48 ]
  tail call void (ptr, ...) @warning(ptr noundef %.0.i37, ptr noundef %0) #19
  br label %ends_with.exit.thread

52:                                               ; preds = %44
  %53 = tail call i32 @open_pack_index(ptr noundef nonnull %47) #19
  %.not36 = icmp eq i32 %53, 0
  br i1 %.not36, label %58, label %54

54:                                               ; preds = %52
  %55 = load i32, ptr @git_gettext_enabled, align 4, !tbaa !40
  %.not4.i38 = icmp eq i32 %55, 0
  br i1 %.not4.i38, label %_.exit40, label %56

56:                                               ; preds = %54
  %57 = tail call ptr @dcgettext(ptr noundef null, ptr noundef nonnull @.str.45, i32 noundef 5) #19
  br label %_.exit40

_.exit40:                                         ; preds = %54, %56
  %.0.i39 = phi ptr [ %57, %56 ], [ @.str.45, %54 ]
  tail call void (ptr, ...) @warning(ptr noundef %.0.i39, ptr noundef %0) #19
  tail call void @close_pack(ptr noundef nonnull %47) #19
  tail call void @free(ptr noundef nonnull %47) #19
  br label %ends_with.exit.thread

58:                                               ; preds = %52
  %59 = load ptr, ptr %3, align 8, !tbaa !45
  %60 = load i64, ptr %30, align 8, !tbaa !43
  %61 = getelementptr inbounds nuw %struct.pack_info, ptr %59, i64 %60
  %62 = trunc i64 %60 to i32
  tail call void @llvm.memset.p0.i64(ptr noundef nonnull align 8 dereferenceable(40) %61, i8 0, i64 40, i1 false)
  store i32 %62, ptr %61, align 8, !tbaa !58
  %63 = tail call ptr @xstrdup(ptr noundef nonnull %2) #19
  %64 = getelementptr inbounds nuw i8, ptr %61, i64 8
  store ptr %63, ptr %64, align 8, !tbaa !60
  %65 = getelementptr inbounds nuw i8, ptr %61, i64 16
  store ptr %47, ptr %65, align 8, !tbaa !61
  %66 = getelementptr inbounds nuw i8, ptr %61, i64 24
  store i32 -1, ptr %66, align 8, !tbaa !62
  %67 = load i64, ptr %30, align 8, !tbaa !43
  %68 = add i64 %67, 1
  store i64 %68, ptr %30, align 8, !tbaa !43
  br label %ends_with.exit.thread

ends_with.exit.thread:                            ; preds = %28, %23, %18, %4, %ends_with.exit, %58, %_.exit40, %_.exit
  ret void
}